target datalayout = "e-m:e-p270:32:32-p271:32:32-p272:64:64-i64:64-i128:128-f80:128-n8:16:32:64-S128"
target triple = "x86_64-pc-linux-gnu"

%struct.AVCodecContext = type { ptr, i32, i32, ptr, i32, i32, ptr, ptr, ptr, i64, i32, i32, ptr, i32, %struct.AVRational, %struct.AVRational, %struct.AVRational, i32, i32, i32, i32, i32, %struct.AVRational, i32, i32, i32, i32, i32, i32, i32, i32, i32, i32, i32, ptr, ptr, i32, float, float, float, float, float, float, float, float, float, i32, i32, i32, i32, i32, i32, i32, i32, i32, i32, i32, i32, ptr, ptr, ptr, i32, i32, i32, i32, i32, i32, i32, i32, i32, i32, %struct.AVChannelLayout, i32, i32, i32, i32, i32, i32, i32, i32, ptr, i32, i32, i32, float, float, i32, i32, i32, i32, i32, ptr, i64, i64, float, float, i32, i32, ptr, ptr, i32, i32, i32, i32, i32, ptr, ptr, ptr, ptr, i32, i32, [8 x i64], i32, i32, i32, i32, i32, i32, i32, ptr, ptr, i32, i32, i32, i32, i32, i32, i32, i32, i32, i32, ptr, ptr, i32, i32, ptr, ptr, ptr, ptr, i32, i32, i64, i32, i32, i64, ptr, i64, ptr, i32, ptr, i32 }
%struct.AVRational = type { i32, i32 }
%struct.AVChannelLayout = type { i32, i32, %union.anon.0, ptr }
%union.anon.0 = type { i64 }
%struct.WMAProDecodeCtx = type { ptr, ptr, [32832 x i8], %struct.PutBitContext, [8 x ptr], [8 x ptr], [8192 x float], [8 x ptr], i32, i8, i8, i8, i16, i16, i16, i16, i8, i8, i8, i8, i16, [8 x i8], [8 x [29 x i16]], [8 x [8 x [29 x i8]]], [8 x i16], %struct.GetBitContext, i32, i8, i8, i32, i32, i32, i8, i8, i8, i32, %struct.GetBitContext, i32, i8, i8, i8, i8, i16, i8, i8, [8 x i8], i8, i8, ptr, i8, i8, i8, [8 x %struct.WMAProChannelGrp], [8 x i8], [8 x %struct.WMAProChannelCtx] }
%struct.PutBitContext = type { i32, i32, ptr, ptr, ptr }
%struct.GetBitContext = type { ptr, ptr, i32, i32, i32 }
%struct.WMAProChannelGrp = type { i8, i8, [29 x i8], [64 x float], [8 x ptr] }
%struct.WMAProChannelCtx = type { i16, i8, i8, [32 x i16], [32 x i16], i8, i16, i8, i32, i8, i8, i32, [2 x [29 x i32]], i8, ptr, i8, ptr, i16, [14 x i8], [12288 x float] }
%struct.XMADecodeCtx = type { [8 x %struct.WMAProDecodeCtx], [8 x ptr], i32, i32, [2 x [8 x ptr]], [8 x i32], i32, i32, i32, [12 x i8] }

; Function Attrs: cold nounwind optsize uwtable
define internal i32 @xma_decode_end(ptr noundef %0) #0 {
  %2 = alloca ptr, align 8
  %3 = alloca ptr, align 8
  %4 = alloca i32, align 4
  store ptr %0, ptr %2, align 8, !tbaa !4
  call void @llvm.lifetime.start.p0(i64 8, ptr %3) #11
  %5 = load ptr, ptr %2, align 8, !tbaa !4
  %6 = getelementptr inbounds nuw %struct.AVCodecContext, ptr %5, i32 0, i32 6
  %7 = load ptr, ptr %6, align 8, !tbaa !9
  store ptr %7, ptr %3, align 8, !tbaa !49
  call void @llvm.lifetime.start.p0(i64 4, ptr %4) #11
  store i32 0, ptr %4, align 4, !tbaa !47
  br label %8

8:                                                ; preds = %26, %1
  %9 = load i32, ptr %4, align 4, !tbaa !47
  %10 = load ptr, ptr %3, align 8, !tbaa !49
  %11 = getelementptr inbounds nuw %struct.XMADecodeCtx, ptr %10, i32 0, i32 3
  %12 = load i32, ptr %11, align 4, !tbaa !57
  %13 = icmp slt i32 %9, %12
  br i1 %13, label %14, label %29

14:                                               ; preds = %8
  %15 = load ptr, ptr %3, align 8, !tbaa !49
  %16 = getelementptr inbounds nuw %struct.XMADecodeCtx, ptr %15, i32 0, i32 0
  %17 = load i32, ptr %4, align 4, !tbaa !47
  %18 = sext i32 %17 to i64
  %19 = getelementptr inbounds [8 x %struct.WMAProDecodeCtx], ptr %16, i64 0, i64 %18
  %20 = call i32 @decode_end(ptr noundef %19) #12
  %21 = load ptr, ptr %3, align 8, !tbaa !49
  %22 = getelementptr inbounds nuw %struct.XMADecodeCtx, ptr %21, i32 0, i32 1
  %23 = load i32, ptr %4, align 4, !tbaa !47
  %24 = sext i32 %23 to i64
  %25 = getelementptr inbounds [8 x ptr], ptr %22, i64 0, i64 %24
  call void @av_frame_free(ptr noundef %25)
  br label %26

26:                                               ; preds = %14
  %27 = load i32, ptr %4, align 4, !tbaa !47
  %28 = add nsw i32 %27, 1
  store i32 %28, ptr %4, align 4, !tbaa !47
  br label %8, !llvm.loop !90

29:                                               ; preds = %8
  %30 = load ptr, ptr %3, align 8, !tbaa !49
  %31 = getelementptr inbounds nuw %struct.XMADecodeCtx, ptr %30, i32 0, i32 3
  store i32 0, ptr %31, align 4, !tbaa !57
  store i32 0, ptr %4, align 4, !tbaa !47
  br label %32

32:                                               ; preds = %50, %29
  %33 = load i32, ptr %4, align 4, !tbaa !47
  %34 = icmp slt i32 %33, 8
  br i1 %34, label %35, label %53

35:                                               ; preds = %32
  %36 = load ptr, ptr %3, align 8, !tbaa !49
  %37 = getelementptr inbounds nuw %struct.XMADecodeCtx, ptr %36, i32 0, i32 4
  %38 = getelementptr inbounds [2 x [8 x ptr]], ptr %37, i64 0, i64 0
  %39 = load i32, ptr %4, align 4, !tbaa !47
  %40 = sext i32 %39 to i64
  %41 = getelementptr inbounds [8 x ptr], ptr %38, i64 0, i64 %40
  %42 = load ptr, ptr %41, align 8, !tbaa !63
  call void @av_audio_fifo_free(ptr noundef %42)
  %43 = load ptr, ptr %3, align 8, !tbaa !49
  %44 = getelementptr inbounds nuw %struct.XMADecodeCtx, ptr %43, i32 0, i32 4
  %45 = getelementptr inbounds [2 x [8 x ptr]], ptr %44, i64 0, i64 1
  %46 = load i32, ptr %4, align 4, !tbaa !47
  %47 = sext i32 %46 to i64
  %48 = getelementptr inbounds [8 x ptr], ptr %45, i64 0, i64 %47
  %49 = load ptr, ptr %48, align 8, !tbaa !63
  call void @av_audio_fifo_free(ptr noundef %49)
  br label %50

50:                                               ; preds = %35
  %51 = load i32, ptr %4, align 4, !tbaa !47
  %52 = add nsw i32 %51, 1
  store i32 %52, ptr %4, align 4, !tbaa !47
  br label %32, !llvm.loop !91

53:                                               ; preds = %32
  call void @llvm.lifetime.end.p0(i64 4, ptr %4) #11
  call void @llvm.lifetime.end.p0(i64 8, ptr %3) #11
  ret i32 0
}