; Function Attrs: cold nounwind optsize uwtable
define internal noundef i32 @xma_decode_end(ptr noundef readonly captures(none) %0) #0 {
  %2 = getelementptr inbounds nuw i8, ptr %0, i64 32
  %3 = load ptr, ptr %2, align 8, !tbaa !4
  %4 = getelementptr inbounds nuw i8, ptr %3, i64 3742788
  %5 = load i32, ptr %4, align 4, !tbaa !52
  %6 = icmp sgt i32 %5, 0
  br i1 %6, label %.lr.ph, label %._crit_edge

.lr.ph:                                           ; preds = %1
  %7 = getelementptr inbounds nuw i8, ptr %3, i64 3742720
  br label %8

8:                                                ; preds = %.lr.ph, %8
  %indvars.iv = phi i64 [ 0, %.lr.ph ], [ %indvars.iv.next, %8 ]
  %9 = getelementptr inbounds nuw [8 x %struct.WMAProDecodeCtx], ptr %3, i64 0, i64 %indvars.iv
  tail call fastcc void @decode_end(ptr noundef %9) #10
  %10 = getelementptr inbounds nuw [8 x ptr], ptr %7, i64 0, i64 %indvars.iv
  tail call void @av_frame_free(ptr noundef nonnull %10) #11
  %indvars.iv.next = add nuw nsw i64 %indvars.iv, 1
  %11 = load i32, ptr %4, align 4, !tbaa !52
  %12 = sext i32 %11 to i64
  %13 = icmp slt i64 %indvars.iv.next, %12
  br i1 %13, label %8, label %._crit_edge, !llvm.loop !85

._crit_edge:                                      ; preds = %8, %1
  store i32 0, ptr %4, align 4, !tbaa !52
  %14 = getelementptr inbounds nuw i8, ptr %3, i64 3742792
  %15 = getelementptr inbounds nuw i8, ptr %3, i64 3742856
  br label %16

16:                                               ; preds = %._crit_edge, %16
  %indvars.iv17 = phi i64 [ 0, %._crit_edge ], [ %indvars.iv.next18, %16 ]
  %17 = getelementptr inbounds nuw [8 x ptr], ptr %14, i64 0, i64 %indvars.iv17
  %18 = load ptr, ptr %17, align 8, !tbaa !60
  tail call void @av_audio_fifo_free(ptr noundef %18) #11
  %19 = getelementptr inbounds nuw [8 x ptr], ptr %15, i64 0, i64 %indvars.iv17
  %20 = load ptr, ptr %19, align 8, !tbaa !60
  tail call void @av_audio_fifo_free(ptr noundef %20) #11
  %indvars.iv.next18 = add nuw nsw i64 %indvars.iv17, 1
  %exitcond.not = icmp eq i64 %indvars.iv.next18, 8
  br i1 %exitcond.not, label %21, label %16, !llvm.loop !86

21:                                               ; preds = %16
  ret i32 0
}